; Function Attrs: nounwind sspstrong uwtable
define internal fastcc range(i32 0, 2) i32 @numparam_used_p(ptr noundef %0) unnamed_addr #0 {
  %2 = getelementptr inbounds nuw i8, ptr %0, i64 168
  %3 = load ptr, ptr %2, align 8, !tbaa !89
  %4 = getelementptr inbounds nuw i8, ptr %3, i64 48
  %5 = load ptr, ptr %4, align 8, !tbaa !95
  %.not = icmp eq ptr %5, null
  br i1 %.not, label %11, label %nd_line.exit

nd_line.exit:                                     ; preds = %1
  %6 = getelementptr inbounds nuw i8, ptr %0, i64 200
  %7 = load ptr, ptr %6, align 8, !tbaa !476
  %8 = load i64, ptr %5, align 8, !tbaa !61
  %9 = lshr i64 %8, 15
  %10 = trunc i64 %9 to i32
  tail call void (ptr, ptr, ...) @ripper_compile_error(ptr noundef nonnull %0, ptr noundef nonnull @.str.677, ptr noundef %7, i32 noundef %10) #31
  br label %11

11:                                               ; preds = %1, %nd_line.exit
  %.0 = phi i32 [ 1, %nd_line.exit ], [ 0, %1 ]
  ret i32 %.0
}